; Function Attrs: mustprogress nofree norecurse nosync nounwind willreturn memory(readwrite, inaccessiblemem: none) uwtable
define hidden range(i32 0, 2) i32 @av1_allow_warp(ptr nocapture noundef readonly %0, ptr nocapture noundef readonly %1, ptr nocapture noundef readonly %2, i32 noundef %3, ptr nocapture noundef readonly %4, ptr noundef writeonly %5) local_unnamed_addr #0 {
  %7 = load i32, ptr %4, align 8
  %.not.i.i = icmp eq i32 %7, -1
  br i1 %.not.i.i, label %av1_is_scaled.exit.thread, label %av1_is_valid_scale.exit.i

av1_is_valid_scale.exit.i:                        ; preds = %6
  %8 = getelementptr inbounds nuw i8, ptr %4, i64 4
  %9 = load i32, ptr %8, align 4
  %.not5.i = icmp eq i32 %9, -1
  br i1 %.not5.i, label %av1_is_scaled.exit.thread, label %10

10:                                               ; preds = %av1_is_valid_scale.exit.i
  %.not3.i = icmp eq i32 %7, 16384
  %.not24 = icmp eq i32 %9, 16384
  %or.cond = and i1 %.not3.i, %.not24
  br i1 %or.cond, label %av1_is_scaled.exit.thread, label %av1_is_scaled.exit.thread22

av1_is_scaled.exit.thread:                        ; preds = %10, %6, %av1_is_valid_scale.exit.i
  %.not15 = icmp eq ptr %5, null
  br i1 %.not15, label %12, label %11

11:                                               ; preds = %av1_is_scaled.exit.thread
  tail call void @llvm.memcpy.p0.p0.i64(ptr noundef nonnull align 4 dereferenceable(44) %5, ptr noundef nonnull align 4 dereferenceable(44) @default_warp_params, i64 44, i1 false)
  br label %12

12:                                               ; preds = %11, %av1_is_scaled.exit.thread
  %.not16 = icmp eq i32 %3, 0
  br i1 %.not16, label %13, label %av1_is_scaled.exit.thread22

13:                                               ; preds = %12
  %14 = getelementptr inbounds nuw i8, ptr %1, i64 4
  %15 = load i32, ptr %14, align 4
  %.not17 = icmp eq i32 %15, 0
  br i1 %.not17, label %21, label %16

16:                                               ; preds = %13
  %17 = getelementptr inbounds i8, ptr %0, i64 69
  %18 = load i8, ptr %17, align 1
  %.not18 = icmp eq i8 %18, 0
  br i1 %.not18, label %19, label %21

19:                                               ; preds = %16
  %20 = getelementptr inbounds nuw i8, ptr %0, i64 28
  br i1 %.not15, label %av1_is_scaled.exit.thread22, label %av1_is_scaled.exit.thread22.sink.split

21:                                               ; preds = %16, %13
  %22 = load i32, ptr %1, align 4
  %.not19 = icmp eq i32 %22, 0
  br i1 %.not19, label %av1_is_scaled.exit.thread22, label %23

23:                                               ; preds = %21
  %24 = getelementptr inbounds nuw i8, ptr %2, i64 41
  %25 = load i8, ptr %24, align 1
  %.not20 = icmp ne i8 %25, 0
  %brmerge = or i1 %.not15, %.not20
  %not..not20 = xor i1 %.not20, true
  %.mux = zext i1 %not..not20 to i32
  br i1 %brmerge, label %av1_is_scaled.exit.thread22, label %av1_is_scaled.exit.thread22.sink.split

av1_is_scaled.exit.thread22.sink.split:           ; preds = %23, %19
  %.sink = phi ptr [ %20, %19 ], [ %2, %23 ]
  tail call void @llvm.memcpy.p0.p0.i64(ptr noundef nonnull align 4 dereferenceable(44) %5, ptr noundef nonnull align 4 dereferenceable(44) %.sink, i64 44, i1 false)
  br label %av1_is_scaled.exit.thread22

av1_is_scaled.exit.thread22:                      ; preds = %av1_is_scaled.exit.thread22.sink.split, %10, %23, %21, %19, %12
  %.0 = phi i32 [ 0, %12 ], [ 1, %19 ], [ 0, %21 ], [ %.mux, %23 ], [ 0, %10 ], [ 1, %av1_is_scaled.exit.thread22.sink.split ]
  ret i32 %.0
}